target datalayout = "e-m:e-p270:32:32-p271:32:32-p272:64:64-i64:64-i128:128-f80:128-n8:16:32:64-S128"
target triple = "x86_64-pc-linux-gnu"

%class.demodulator_util = type { ptr }
%class.app = type { %class.expr, ptr, i32, %struct.app_flags, [0 x ptr] }
%class.expr = type { %class.ast }
%class.ast = type { i32, i32, i32, i32 }
%struct.app_flags = type <{ i16, i8, i8 }>
%class.quantifier = type { %class.expr, i32, i32, ptr, ptr, i32, i32, i8, i8, %class.symbol, %class.symbol, i32, i32, [0 x i8] }
%class.symbol = type { ptr }
%class.decl = type { %class.ast, %class.symbol, ptr }
%class.decl_info = type <{ i32, i32, %class.vector.77, i8, [7 x i8] }>
%class.vector.77 = type { ptr }

; Function Attrs: mustprogress nounwind uwtable
define linkonce_odr hidden noundef i32 @_ZNK9decl_info13get_family_idEv(ptr noundef nonnull align 8 dereferenceable(17) %0) #7 comdat align 2 {
  %2 = alloca ptr, align 8
  store ptr %0, ptr %2, align 8, !tbaa !421
  %3 = load ptr, ptr %2, align 8
  %4 = getelementptr inbounds nuw %class.decl_info, ptr %3, i32 0, i32 0
  %5 = load i32, ptr %4, align 8, !tbaa !422
  ret i32 %5
}

; Function Attrs: mustprogress uwtable
define linkonce_odr hidden noundef i32 @_ZNK4decl13get_family_idEv(ptr noundef nonnull align 8 dereferenceable(32) %0) #4 comdat align 2 {
  %2 = alloca ptr, align 8
  store ptr %0, ptr %2, align 8, !tbaa !324
  %3 = load ptr, ptr %2, align 8
  %4 = getelementptr inbounds nuw %class.decl, ptr %3, i32 0, i32 2
  %5 = load ptr, ptr %4, align 8, !tbaa !335
  %6 = icmp eq ptr %5, null
  br i1 %6, label %7, label %8

7:                                                ; preds = %1
  br label %12

8:                                                ; preds = %1
  %9 = getelementptr inbounds nuw %class.decl, ptr %3, i32 0, i32 2
  %10 = load ptr, ptr %9, align 8, !tbaa !335
  %11 = call noundef i32 @_ZNK9decl_info13get_family_idEv(ptr noundef nonnull align 8 dereferenceable(17) %10)
  br label %12

12:                                               ; preds = %8, %7
  %13 = phi i32 [ -1, %7 ], [ %11, %8 ]
  ret i32 %13
}

; Function Attrs: mustprogress nounwind uwtable
define linkonce_odr hidden noundef i32 @_ZNK10quantifier9get_depthEv(ptr noundef nonnull align 8 dereferenceable(80) %0) #7 comdat align 2 {
  %2 = alloca ptr, align 8
  store ptr %0, ptr %2, align 8, !tbaa !41
  %3 = load ptr, ptr %2, align 8
  %4 = getelementptr inbounds nuw %class.quantifier, ptr %3, i32 0, i32 5
  %5 = load i32, ptr %4, align 8, !tbaa !419
  ret i32 %5
}

; Function Attrs: inlinehint mustprogress nounwind uwtable
define linkonce_odr hidden noundef ptr @_Z13to_quantifierPK3ast(ptr noundef %0) #6 comdat {
  %2 = alloca ptr, align 8
  store ptr %0, ptr %2, align 8, !tbaa !25
  %3 = load ptr, ptr %2, align 8, !tbaa !25
  ret ptr %3
}

; Function Attrs: inlinehint mustprogress nounwind uwtable
define linkonce_odr hidden noundef zeroext i1 @_Z13is_quantifierPK3ast(ptr noundef %0) #6 comdat {
  %2 = alloca ptr, align 8
  store ptr %0, ptr %2, align 8, !tbaa !25
  %3 = load ptr, ptr %2, align 8, !tbaa !25
  %4 = call noundef i32 @_ZNK3ast8get_kindEv(ptr noundef nonnull align 4 dereferenceable(16) %3)
  %5 = icmp eq i32 %4, 2
  ret i1 %5
}

; Function Attrs: mustprogress nounwind uwtable
define linkonce_odr hidden noundef i32 @_ZNK3app9get_depthEv(ptr noundef nonnull align 8 dereferenceable(32) %0) #7 comdat align 2 {
  %2 = alloca ptr, align 8
  store ptr %0, ptr %2, align 8, !tbaa !27
  %3 = load ptr, ptr %2, align 8
  %4 = getelementptr inbounds nuw %class.app, ptr %3, i32 0, i32 3
  %5 = load i16, ptr %4, align 4
  %6 = zext i16 %5 to i32
  ret i32 %6
}

; Function Attrs: inlinehint mustprogress uwtable
define linkonce_odr hidden noundef zeroext i1 @_Z6is_appPK3ast(ptr noundef %0) #8 comdat {
  %2 = alloca ptr, align 8
  store ptr %0, ptr %2, align 8, !tbaa !25
  %3 = load ptr, ptr %2, align 8, !tbaa !25
  %4 = call noundef i32 @_ZNK3ast8get_kindEv(ptr noundef nonnull align 4 dereferenceable(16) %3)
  %5 = icmp eq i32 %4, 0
  ret i1 %5
}

; Function Attrs: mustprogress uwtable
define linkonce_odr hidden noundef i32 @_ZNK3app13get_family_idEv(ptr noundef nonnull align 8 dereferenceable(32) %0) #4 comdat align 2 {
  %2 = alloca ptr, align 8
  store ptr %0, ptr %2, align 8, !tbaa !27
  %3 = load ptr, ptr %2, align 8
  %4 = call noundef ptr @_ZNK3app8get_declEv(ptr noundef nonnull align 8 dereferenceable(32) %3)
  %5 = call noundef i32 @_ZNK4decl13get_family_idEv(ptr noundef nonnull align 8 dereferenceable(32) %4)
  ret i32 %5
}

; Function Attrs: inlinehint mustprogress nounwind uwtable
define linkonce_odr hidden noundef ptr @_Z6to_appPK3ast(ptr noundef %0) #6 comdat {
  %2 = alloca ptr, align 8
  store ptr %0, ptr %2, align 8, !tbaa !25
  %3 = load ptr, ptr %2, align 8, !tbaa !25
  ret ptr %3
}

; Function Attrs: mustprogress nounwind uwtable
define linkonce_odr hidden noundef i32 @_ZNK3ast8get_kindEv(ptr noundef nonnull align 4 dereferenceable(16) %0) #7 comdat align 2 {
  %2 = alloca ptr, align 8
  store ptr %0, ptr %2, align 8, !tbaa !25
  %3 = load ptr, ptr %2, align 8
  %4 = getelementptr inbounds nuw %class.ast, ptr %3, i32 0, i32 1
  %5 = load i32, ptr %4, align 4
  %6 = and i32 %5, 65535
  ret i32 %6
}

; Function Attrs: inlinehint mustprogress uwtable
define linkonce_odr hidden noundef i32 @_Z9get_depthPK4expr(ptr noundef %0) #8 comdat {
  %2 = alloca i32, align 4
  %3 = alloca ptr, align 8
  store ptr %0, ptr %3, align 8, !tbaa !8
  %4 = load ptr, ptr %3, align 8, !tbaa !8
  %5 = call noundef zeroext i1 @_Z6is_appPK3ast(ptr noundef %4)
  br i1 %5, label %6, label %10

6:                                                ; preds = %1
  %7 = load ptr, ptr %3, align 8, !tbaa !8
  %8 = call noundef ptr @_Z6to_appPK3ast(ptr noundef %7)
  %9 = call noundef i32 @_ZNK3app9get_depthEv(ptr noundef nonnull align 8 dereferenceable(32) %8)
  store i32 %9, ptr %2, align 4
  br label %18

10:                                               ; preds = %1
  %11 = load ptr, ptr %3, align 8, !tbaa !8
  %12 = call noundef zeroext i1 @_Z13is_quantifierPK3ast(ptr noundef %11)
  br i1 %12, label %13, label %17

13:                                               ; preds = %10
  %14 = load ptr, ptr %3, align 8, !tbaa !8
  %15 = call noundef ptr @_Z13to_quantifierPK3ast(ptr noundef %14)
  %16 = call noundef i32 @_ZNK10quantifier9get_depthEv(ptr noundef nonnull align 8 dereferenceable(80) %15)
  store i32 %16, ptr %2, align 4
  br label %18

17:                                               ; preds = %10
  store i32 1, ptr %2, align 4
  br label %18

18:                                               ; preds = %17, %13, %6
  %19 = load i32, ptr %2, align 4
  ret i32 %19
}

; Function Attrs: mustprogress nounwind uwtable
define linkonce_odr hidden noundef i32 @_ZNK3ast6get_idEv(ptr noundef nonnull align 4 dereferenceable(16) %0) #7 comdat align 2 {
  %2 = alloca ptr, align 8
  store ptr %0, ptr %2, align 8, !tbaa !25
  %3 = load ptr, ptr %2, align 8
  %4 = getelementptr inbounds nuw %class.ast, ptr %3, i32 0, i32 0
  %5 = load i32, ptr %4, align 4, !tbaa !36
  ret i32 %5
}

; Function Attrs: mustprogress nounwind uwtable
define linkonce_odr hidden noundef ptr @_ZNK3app8get_declEv(ptr noundef nonnull align 8 dereferenceable(32) %0) #7 comdat align 2 {
  %2 = alloca ptr, align 8
  store ptr %0, ptr %2, align 8, !tbaa !27
  %3 = load ptr, ptr %2, align 8
  %4 = getelementptr inbounds nuw %class.app, ptr %3, i32 0, i32 1
  %5 = load ptr, ptr %4, align 8, !tbaa !35
  ret ptr %5
}

; Function Attrs: mustprogress nounwind uwtable
define linkonce_odr hidden noundef i32 @_ZNK3app12get_num_argsEv(ptr noundef nonnull align 8 dereferenceable(32) %0) #7 comdat align 2 {
  %2 = alloca ptr, align 8
  store ptr %0, ptr %2, align 8, !tbaa !27
  %3 = load ptr, ptr %2, align 8
  %4 = getelementptr inbounds nuw %class.app, ptr %3, i32 0, i32 2
  %5 = load i32, ptr %4, align 8, !tbaa !29
  ret i32 %5
}

; Function Attrs: inlinehint mustprogress nounwind uwtable
define linkonce_odr hidden noundef ptr @_Z6to_appP3ast(ptr noundef %0) #6 comdat {
  %2 = alloca ptr, align 8
  store ptr %0, ptr %2, align 8, !tbaa !25
  %3 = load ptr, ptr %2, align 8, !tbaa !25
  ret ptr %3
}

; Function Attrs: inlinehint mustprogress uwtable
define linkonce_odr hidden noundef zeroext i1 @_Z11is_uninterpPK4expr(ptr noundef %0) #8 comdat {
  %2 = alloca ptr, align 8
  store ptr %0, ptr %2, align 8, !tbaa !8
  %3 = load ptr, ptr %2, align 8, !tbaa !8
  %4 = call noundef i32 @_ZNK3ast8get_kindEv(ptr noundef nonnull align 4 dereferenceable(16) %3)
  %5 = icmp eq i32 %4, 0
  br i1 %5, label %6, label %11

6:                                                ; preds = %1
  %7 = load ptr, ptr %2, align 8, !tbaa !8
  %8 = call noundef ptr @_Z6to_appPK3ast(ptr noundef %7)
  %9 = call noundef i32 @_ZNK3app13get_family_idEv(ptr noundef nonnull align 8 dereferenceable(32) %8)
  %10 = icmp eq i32 %9, -1
  br label %11

11:                                               ; preds = %6, %1
  %12 = phi i1 [ false, %1 ], [ %10, %6 ]
  ret i1 %12
}

; Function Attrs: mustprogress uwtable
define hidden noundef i32 @_ZNK16demodulator_util10is_smallerEP4exprS1_(ptr noundef nonnull align 8 dereferenceable(8) %0, ptr noundef %1, ptr noundef %2) #4 align 2 {
  %4 = alloca i32, align 4
  %5 = alloca ptr, align 8
  %6 = alloca ptr, align 8
  %7 = alloca ptr, align 8
  %8 = alloca i32, align 4
  %9 = alloca i32, align 4
  %10 = alloca i32, align 4
  %11 = alloca i32, align 4
  %12 = alloca i32, align 4
  store ptr %0, ptr %5, align 8, !tbaa !3
  store ptr %1, ptr %6, align 8, !tbaa !8
  store ptr %2, ptr %7, align 8, !tbaa !8
  %13 = load ptr, ptr %5, align 8
  call void @llvm.lifetime.start.p0(i64 4, ptr %8) #3
  store i32 0, ptr %8, align 4, !tbaa !17
  call void @llvm.lifetime.start.p0(i64 4, ptr %9) #3
  store i32 0, ptr %9, align 4, !tbaa !17
  %14 = getelementptr inbounds nuw %class.demodulator_util, ptr %13, i32 0, i32 0
  %15 = load ptr, ptr %14, align 8, !tbaa !10
  %16 = load ptr, ptr %6, align 8, !tbaa !8
  %17 = call noundef zeroext i1 @_ZNK11ast_manager8is_valueEP4expr(ptr noundef nonnull align 8 dereferenceable(976) %15, ptr noundef %16)
  br i1 %17, label %18, label %19

18:                                               ; preds = %3
  store i32 1, ptr %4, align 4
  store i32 1, ptr %10, align 4
  br label %106

19:                                               ; preds = %3
  %20 = getelementptr inbounds nuw %class.demodulator_util, ptr %13, i32 0, i32 0
  %21 = load ptr, ptr %20, align 8, !tbaa !10
  %22 = load ptr, ptr %7, align 8, !tbaa !8
  %23 = call noundef zeroext i1 @_ZNK11ast_manager8is_valueEP4expr(ptr noundef nonnull align 8 dereferenceable(976) %21, ptr noundef %22)
  br i1 %23, label %24, label %25

24:                                               ; preds = %19
  store i32 -1, ptr %4, align 4
  store i32 1, ptr %10, align 4
  br label %106

25:                                               ; preds = %19
  br label %26

26:                                               ; preds = %25
  %27 = load ptr, ptr %6, align 8, !tbaa !8
  %28 = call noundef zeroext i1 @_Z11is_uninterpPK4expr(ptr noundef %27)
  br i1 %28, label %33, label %29

29:                                               ; preds = %26
  %30 = load ptr, ptr %7, align 8, !tbaa !8
  %31 = call noundef zeroext i1 @_Z11is_uninterpPK4expr(ptr noundef %30)
  br i1 %31, label %32, label %33

32:                                               ; preds = %29
  store i32 1, ptr %4, align 4
  store i32 1, ptr %10, align 4
  br label %106

33:                                               ; preds = %29, %26
  %34 = load ptr, ptr %6, align 8, !tbaa !8
  %35 = call noundef zeroext i1 @_Z11is_uninterpPK4expr(ptr noundef %34)
  br i1 %35, label %36, label %40

36:                                               ; preds = %33
  %37 = load ptr, ptr %7, align 8, !tbaa !8
  %38 = call noundef zeroext i1 @_Z11is_uninterpPK4expr(ptr noundef %37)
  br i1 %38, label %40, label %39

39:                                               ; preds = %36
  store i32 -1, ptr %4, align 4
  store i32 1, ptr %10, align 4
  br label %106

40:                                               ; preds = %36, %33
  br label %41

41:                                               ; preds = %40
  %42 = load ptr, ptr %6, align 8, !tbaa !8
  %43 = call noundef zeroext i1 @_Z11is_uninterpPK4expr(ptr noundef %42)
  br i1 %43, label %44, label %90

44:                                               ; preds = %41
  %45 = load ptr, ptr %7, align 8, !tbaa !8
  %46 = call noundef zeroext i1 @_Z11is_uninterpPK4expr(ptr noundef %45)
  br i1 %46, label %47, label %90

47:                                               ; preds = %44
  %48 = load ptr, ptr %6, align 8, !tbaa !8
  %49 = call noundef ptr @_Z6to_appP3ast(ptr noundef %48)
  %50 = call noundef i32 @_ZNK3app12get_num_argsEv(ptr noundef nonnull align 8 dereferenceable(32) %49)
  %51 = load ptr, ptr %7, align 8, !tbaa !8
  %52 = call noundef ptr @_Z6to_appP3ast(ptr noundef %51)
  %53 = call noundef i32 @_ZNK3app12get_num_argsEv(ptr noundef nonnull align 8 dereferenceable(32) %52)
  %54 = icmp ult i32 %50, %53
  br i1 %54, label %55, label %56

55:                                               ; preds = %47
  store i32 1, ptr %4, align 4
  store i32 1, ptr %10, align 4
  br label %106

56:                                               ; preds = %47
  %57 = load ptr, ptr %6, align 8, !tbaa !8
  %58 = call noundef ptr @_Z6to_appP3ast(ptr noundef %57)
  %59 = call noundef i32 @_ZNK3app12get_num_argsEv(ptr noundef nonnull align 8 dereferenceable(32) %58)
  %60 = load ptr, ptr %7, align 8, !tbaa !8
  %61 = call noundef ptr @_Z6to_appP3ast(ptr noundef %60)
  %62 = call noundef i32 @_ZNK3app12get_num_argsEv(ptr noundef nonnull align 8 dereferenceable(32) %61)
  %63 = icmp ugt i32 %59, %62
  br i1 %63, label %64, label %65

64:                                               ; preds = %56
  store i32 -1, ptr %4, align 4
  store i32 1, ptr %10, align 4
  br label %106

65:                                               ; preds = %56
  call void @llvm.lifetime.start.p0(i64 4, ptr %11) #3
  %66 = load ptr, ptr %6, align 8, !tbaa !8
  %67 = call noundef ptr @_Z6to_appP3ast(ptr noundef %66)
  %68 = call noundef ptr @_ZNK3app8get_declEv(ptr noundef nonnull align 8 dereferenceable(32) %67)
  %69 = call noundef i32 @_ZNK3ast6get_idEv(ptr noundef nonnull align 4 dereferenceable(16) %68)
  store i32 %69, ptr %11, align 4, !tbaa !17
  call void @llvm.lifetime.start.p0(i64 4, ptr %12) #3
  %70 = load ptr, ptr %7, align 8, !tbaa !8
  %71 = call noundef ptr @_Z6to_appP3ast(ptr noundef %70)
  %72 = call noundef ptr @_ZNK3app8get_declEv(ptr noundef nonnull align 8 dereferenceable(32) %71)
  %73 = call noundef i32 @_ZNK3ast6get_idEv(ptr noundef nonnull align 4 dereferenceable(16) %72)
  store i32 %73, ptr %12, align 4, !tbaa !17
  %74 = load i32, ptr %11, align 4, !tbaa !17
  %75 = load i32, ptr %12, align 4, !tbaa !17
  %76 = icmp ult i32 %74, %75
  br i1 %76, label %77, label %78

77:                                               ; preds = %65
  store i32 1, ptr %4, align 4
  store i32 1, ptr %10, align 4
  br label %85

78:                                               ; preds = %65
  %79 = load i32, ptr %11, align 4, !tbaa !17
  %80 = load i32, ptr %12, align 4, !tbaa !17
  %81 = icmp ugt i32 %79, %80
  br i1 %81, label %82, label %83

82:                                               ; preds = %78
  store i32 -1, ptr %4, align 4
  store i32 1, ptr %10, align 4
  br label %85

83:                                               ; preds = %78
  br label %84

84:                                               ; preds = %83
  store i32 0, ptr %10, align 4
  br label %85

85:                                               ; preds = %84, %82, %77
  call void @llvm.lifetime.end.p0(i64 4, ptr %12) #3
  call void @llvm.lifetime.end.p0(i64 4, ptr %11) #3
  %86 = load i32, ptr %10, align 4
  switch i32 %86, label %106 [
    i32 0, label %87
  ]

87:                                               ; preds = %85
  br label %88

88:                                               ; preds = %87
  br label %89

89:                                               ; preds = %88
  br label %90

90:                                               ; preds = %89, %44, %41
  %91 = load ptr, ptr %6, align 8, !tbaa !8
  %92 = call noundef i32 @_Z9get_depthPK4expr(ptr noundef %91)
  store i32 %92, ptr %8, align 4, !tbaa !17
  %93 = load ptr, ptr %7, align 8, !tbaa !8
  %94 = call noundef i32 @_Z9get_depthPK4expr(ptr noundef %93)
  store i32 %94, ptr %9, align 4, !tbaa !17
  %95 = load i32, ptr %8, align 4, !tbaa !17
  %96 = load i32, ptr %9, align 4, !tbaa !17
  %97 = icmp eq i32 %95, %96
  br i1 %97, label %98, label %99

98:                                               ; preds = %90
  br label %104

99:                                               ; preds = %90
  %100 = load i32, ptr %8, align 4, !tbaa !17
  %101 = load i32, ptr %9, align 4, !tbaa !17
  %102 = icmp ult i32 %100, %101
  %103 = select i1 %102, i32 1, i32 -1
  br label %104

104:                                              ; preds = %99, %98
  %105 = phi i32 [ 0, %98 ], [ %103, %99 ]
  store i32 %105, ptr %4, align 4
  store i32 1, ptr %10, align 4
  br label %106

106:                                              ; preds = %104, %85, %64, %55, %39, %32, %24, %18
  call void @llvm.lifetime.end.p0(i64 4, ptr %9) #3
  call void @llvm.lifetime.end.p0(i64 4, ptr %8) #3
  %107 = load i32, ptr %4, align 4
  ret i32 %107
}