; Function Attrs: mustprogress uwtable
define hidden noundef i32 @_ZNK16demodulator_util10is_smallerEP4exprS1_(ptr noundef nonnull readonly align 8 captures(none) dereferenceable(8) %0, ptr noundef %1, ptr noundef %2) local_unnamed_addr #3 align 2 {
  %4 = load ptr, ptr %0, align 8, !tbaa !9
  %5 = tail call noundef zeroext i1 @_ZNK11ast_manager8is_valueEP4expr(ptr noundef nonnull align 8 dereferenceable(976) %4, ptr noundef %1)
  br i1 %5, label %_Z11is_uninterpPK4expr.exit30.thread, label %6

6:                                                ; preds = %3
  %7 = load ptr, ptr %0, align 8, !tbaa !9
  %8 = tail call noundef zeroext i1 @_ZNK11ast_manager8is_valueEP4expr(ptr noundef nonnull align 8 dereferenceable(976) %7, ptr noundef %2)
  br i1 %8, label %_Z11is_uninterpPK4expr.exit30.thread, label %9

9:                                                ; preds = %6
  %10 = getelementptr inbounds nuw i8, ptr %1, i64 4
  %11 = load i32, ptr %10, align 4
  %12 = and i32 %11, 65535
  %13 = icmp eq i32 %12, 0
  br i1 %13, label %14, label %_Z11is_uninterpPK4expr.exit.thread38

14:                                               ; preds = %9
  %15 = getelementptr inbounds nuw i8, ptr %1, i64 16
  %16 = load ptr, ptr %15, align 8, !tbaa !24
  %17 = getelementptr inbounds nuw i8, ptr %16, i64 24
  %18 = load ptr, ptr %17, align 8, !tbaa !30
  %19 = icmp eq ptr %18, null
  br i1 %19, label %_Z11is_uninterpPK4expr.exit31.thread, label %_Z11is_uninterpPK4expr.exit

_Z11is_uninterpPK4expr.exit:                      ; preds = %14
  %20 = load i32, ptr %18, align 8, !tbaa !35
  %21 = icmp eq i32 %20, -1
  br i1 %21, label %_Z11is_uninterpPK4expr.exit31.thread, label %_Z11is_uninterpPK4expr.exit.thread38

_Z11is_uninterpPK4expr.exit.thread38:             ; preds = %9, %_Z11is_uninterpPK4expr.exit
  %22 = getelementptr inbounds nuw i8, ptr %2, i64 4
  %23 = load i32, ptr %22, align 4
  %24 = and i32 %23, 65535
  %25 = icmp eq i32 %24, 0
  br i1 %25, label %26, label %_Z11is_uninterpPK4expr.exit30.thread39

26:                                               ; preds = %_Z11is_uninterpPK4expr.exit.thread38
  %27 = getelementptr inbounds nuw i8, ptr %2, i64 16
  %28 = load ptr, ptr %27, align 8, !tbaa !24
  %29 = getelementptr inbounds nuw i8, ptr %28, i64 24
  %30 = load ptr, ptr %29, align 8, !tbaa !30
  %31 = icmp eq ptr %30, null
  br i1 %31, label %_Z11is_uninterpPK4expr.exit30.thread, label %_Z11is_uninterpPK4expr.exit30

_Z11is_uninterpPK4expr.exit30:                    ; preds = %26
  %32 = load i32, ptr %30, align 8, !tbaa !35
  %33 = icmp eq i32 %32, -1
  br i1 %33, label %_Z11is_uninterpPK4expr.exit30.thread, label %_Z11is_uninterpPK4expr.exit30.thread39

_Z11is_uninterpPK4expr.exit30.thread39:           ; preds = %_Z11is_uninterpPK4expr.exit.thread38, %_Z11is_uninterpPK4expr.exit30
  br i1 %13, label %.thread, label %_Z11is_uninterpPK4expr.exit33.thread44

.thread:                                          ; preds = %_Z11is_uninterpPK4expr.exit30.thread39
  %.phi.trans.insert = getelementptr inbounds nuw i8, ptr %1, i64 16
  %.pre = load ptr, ptr %.phi.trans.insert, align 8, !tbaa !24
  %.phi.trans.insert49 = getelementptr inbounds nuw i8, ptr %.pre, i64 24
  %.pre50 = load ptr, ptr %.phi.trans.insert49, align 8, !tbaa !30
  %34 = icmp eq ptr %.pre50, null
  br i1 %34, label %_Z11is_uninterpPK4expr.exit31.thread, label %_Z11is_uninterpPK4expr.exit31

_Z11is_uninterpPK4expr.exit31:                    ; preds = %.thread
  %.pr = load i32, ptr %.pre50, align 8, !tbaa !35
  %35 = icmp eq i32 %.pr, -1
  br i1 %35, label %_Z11is_uninterpPK4expr.exit31.thread, label %_Z11is_uninterpPK4expr.exit33.thread44

_Z11is_uninterpPK4expr.exit31.thread:             ; preds = %_Z11is_uninterpPK4expr.exit, %14, %.thread, %_Z11is_uninterpPK4expr.exit31
  %36 = phi i1 [ true, %.thread ], [ false, %_Z11is_uninterpPK4expr.exit31 ], [ true, %14 ], [ false, %_Z11is_uninterpPK4expr.exit ]
  %37 = phi ptr [ %.pre, %.thread ], [ %.pre, %_Z11is_uninterpPK4expr.exit31 ], [ %16, %14 ], [ %16, %_Z11is_uninterpPK4expr.exit ]
  %38 = phi ptr [ null, %.thread ], [ %.pre50, %_Z11is_uninterpPK4expr.exit31 ], [ null, %14 ], [ %18, %_Z11is_uninterpPK4expr.exit ]
  %39 = getelementptr inbounds nuw i8, ptr %2, i64 4
  %40 = load i32, ptr %39, align 4
  %41 = and i32 %40, 65535
  %42 = icmp eq i32 %41, 0
  br i1 %42, label %43, label %_Z11is_uninterpPK4expr.exit30.thread

43:                                               ; preds = %_Z11is_uninterpPK4expr.exit31.thread
  %44 = getelementptr inbounds nuw i8, ptr %2, i64 16
  %45 = load ptr, ptr %44, align 8, !tbaa !24
  %46 = getelementptr inbounds nuw i8, ptr %45, i64 24
  %47 = load ptr, ptr %46, align 8, !tbaa !30
  %48 = icmp eq ptr %47, null
  br i1 %48, label %_Z11is_uninterpPK4expr.exit32.thread, label %_Z11is_uninterpPK4expr.exit32

_Z11is_uninterpPK4expr.exit32:                    ; preds = %43
  %49 = load i32, ptr %47, align 8, !tbaa !35
  %50 = icmp eq i32 %49, -1
  br i1 %50, label %_Z11is_uninterpPK4expr.exit32.thread, label %_Z11is_uninterpPK4expr.exit30.thread

_Z11is_uninterpPK4expr.exit32.thread:             ; preds = %43, %_Z11is_uninterpPK4expr.exit32
  br i1 %36, label %_Z11is_uninterpPK4expr.exit33.thread, label %_Z11is_uninterpPK4expr.exit33

_Z11is_uninterpPK4expr.exit33:                    ; preds = %_Z11is_uninterpPK4expr.exit32.thread
  %.pr53 = load i32, ptr %38, align 8, !tbaa !35
  %51 = icmp eq i32 %.pr53, -1
  br i1 %51, label %_Z11is_uninterpPK4expr.exit33.thread, label %_Z11is_uninterpPK4expr.exit33.thread44

_Z11is_uninterpPK4expr.exit33.thread:             ; preds = %_Z11is_uninterpPK4expr.exit32.thread, %_Z11is_uninterpPK4expr.exit33
  %52 = getelementptr inbounds nuw i8, ptr %2, i64 4
  %53 = load i32, ptr %52, align 4
  %54 = and i32 %53, 65535
  %55 = icmp eq i32 %54, 0
  br i1 %55, label %56, label %_Z11is_uninterpPK4expr.exit33.thread44

56:                                               ; preds = %_Z11is_uninterpPK4expr.exit33.thread
  %57 = getelementptr inbounds nuw i8, ptr %2, i64 16
  %58 = load ptr, ptr %57, align 8, !tbaa !24
  %59 = getelementptr inbounds nuw i8, ptr %58, i64 24
  %60 = load ptr, ptr %59, align 8, !tbaa !30
  %61 = icmp eq ptr %60, null
  br i1 %61, label %_Z11is_uninterpPK4expr.exit34.thread, label %_Z11is_uninterpPK4expr.exit34

_Z11is_uninterpPK4expr.exit34:                    ; preds = %56
  %62 = load i32, ptr %60, align 8, !tbaa !35
  %63 = icmp eq i32 %62, -1
  br i1 %63, label %_Z11is_uninterpPK4expr.exit34.thread, label %_Z11is_uninterpPK4expr.exit33.thread44

_Z11is_uninterpPK4expr.exit34.thread:             ; preds = %56, %_Z11is_uninterpPK4expr.exit34
  %64 = getelementptr inbounds nuw i8, ptr %1, i64 24
  %65 = load i32, ptr %64, align 8, !tbaa !40
  %66 = getelementptr inbounds nuw i8, ptr %2, i64 24
  %67 = load i32, ptr %66, align 8, !tbaa !40
  %68 = icmp ult i32 %65, %67
  br i1 %68, label %_Z11is_uninterpPK4expr.exit30.thread, label %69

69:                                               ; preds = %_Z11is_uninterpPK4expr.exit34.thread
  %70 = icmp ugt i32 %65, %67
  br i1 %70, label %_Z11is_uninterpPK4expr.exit30.thread, label %71

71:                                               ; preds = %69
  %72 = load i32, ptr %37, align 4, !tbaa !41
  %73 = load i32, ptr %58, align 4, !tbaa !41
  %74 = icmp ult i32 %72, %73
  br i1 %74, label %_Z11is_uninterpPK4expr.exit30.thread, label %75

75:                                               ; preds = %71
  %.not = icmp ugt i32 %72, %73
  br i1 %.not, label %_Z11is_uninterpPK4expr.exit30.thread, label %_Z11is_uninterpPK4expr.exit33.thread44

_Z11is_uninterpPK4expr.exit33.thread44:           ; preds = %_Z11is_uninterpPK4expr.exit31, %_Z11is_uninterpPK4expr.exit33.thread, %_Z11is_uninterpPK4expr.exit30.thread39, %75, %_Z11is_uninterpPK4expr.exit34, %_Z11is_uninterpPK4expr.exit33
  %trunc.i = trunc i32 %11 to i16
  switch i16 %trunc.i, label %_Z9get_depthPK4expr.exit [
    i16 0, label %76
    i16 2, label %80
  ]

76:                                               ; preds = %_Z11is_uninterpPK4expr.exit33.thread44
  %77 = getelementptr inbounds nuw i8, ptr %1, i64 28
  %78 = load i16, ptr %77, align 4
  %79 = zext i16 %78 to i32
  br label %_Z9get_depthPK4expr.exit

80:                                               ; preds = %_Z11is_uninterpPK4expr.exit33.thread44
  %81 = getelementptr inbounds nuw i8, ptr %1, i64 40
  %82 = load i32, ptr %81, align 8, !tbaa !42
  br label %_Z9get_depthPK4expr.exit

_Z9get_depthPK4expr.exit:                         ; preds = %_Z11is_uninterpPK4expr.exit33.thread44, %76, %80
  %.0.i = phi i32 [ %79, %76 ], [ %82, %80 ], [ 1, %_Z11is_uninterpPK4expr.exit33.thread44 ]
  %83 = getelementptr inbounds nuw i8, ptr %2, i64 4
  %84 = load i32, ptr %83, align 4
  %trunc.i35 = trunc i32 %84 to i16
  switch i16 %trunc.i35, label %_Z9get_depthPK4expr.exit37 [
    i16 0, label %85
    i16 2, label %89
  ]

85:                                               ; preds = %_Z9get_depthPK4expr.exit
  %86 = getelementptr inbounds nuw i8, ptr %2, i64 28
  %87 = load i16, ptr %86, align 4
  %88 = zext i16 %87 to i32
  br label %_Z9get_depthPK4expr.exit37

89:                                               ; preds = %_Z9get_depthPK4expr.exit
  %90 = getelementptr inbounds nuw i8, ptr %2, i64 40
  %91 = load i32, ptr %90, align 8, !tbaa !42
  br label %_Z9get_depthPK4expr.exit37

_Z9get_depthPK4expr.exit37:                       ; preds = %_Z9get_depthPK4expr.exit, %85, %89
  %.0.i36 = phi i32 [ %88, %85 ], [ %91, %89 ], [ 1, %_Z9get_depthPK4expr.exit ]
  %92 = tail call i32 @llvm.ucmp.i32.i32(i32 %.0.i36, i32 %.0.i)
  br label %_Z11is_uninterpPK4expr.exit30.thread

_Z11is_uninterpPK4expr.exit30.thread:             ; preds = %71, %_Z11is_uninterpPK4expr.exit31.thread, %26, %69, %_Z11is_uninterpPK4expr.exit34.thread, %_Z11is_uninterpPK4expr.exit32, %_Z11is_uninterpPK4expr.exit30, %6, %3, %75, %_Z9get_depthPK4expr.exit37
  %.0 = phi i32 [ %92, %_Z9get_depthPK4expr.exit37 ], [ -1, %75 ], [ 1, %3 ], [ -1, %6 ], [ 1, %_Z11is_uninterpPK4expr.exit30 ], [ -1, %_Z11is_uninterpPK4expr.exit32 ], [ 1, %_Z11is_uninterpPK4expr.exit34.thread ], [ -1, %69 ], [ 1, %26 ], [ -1, %_Z11is_uninterpPK4expr.exit31.thread ], [ 1, %71 ]
  ret i32 %.0
}